; ModuleID = 'source-C-CXX/57/1148.c'
source_filename = "source-C-CXX/57/1148.c"
target datalayout = "e-m:e-p270:32:32-p271:32:32-p272:64:64-i64:64-f80:128-n8:16:32:64-S128"
target triple = "x86_64-pc-linux-gnu"

@.str = private unnamed_addr constant [3 x i8] c"%d\00", align 1
@str = private unnamed_addr constant [2 x i8] c"1\00", align 1
@str.3 = private unnamed_addr constant [2 x i8] c"0\00", align 1

; Function Attrs: mustprogress nofree norecurse nosync nounwind readnone sspstrong uwtable willreturn
define dso_local i32 @zimuxiahuaxian(i8 signext %0) local_unnamed_addr #0 {
  %2 = add i8 %0, -65
  %3 = icmp ult i8 %2, 26
  br i1 %3, label %10, label %4

4:                                                ; preds = %1
  %5 = add i8 %0, -97
  %6 = icmp ult i8 %5, 26
  %7 = icmp eq i8 %0, 95
  %8 = or i1 %7, %6
  %9 = zext i1 %8 to i32
  br label %10

10:                                               ; preds = %4, %1
  %11 = phi i32 [ 1, %1 ], [ %9, %4 ]
  ret i32 %11
}

; Function Attrs: argmemonly mustprogress nofree nosync nounwind willreturn
declare void @llvm.lifetime.start.p0i8(i64 immarg, i8* nocapture) #1

; Function Attrs: argmemonly mustprogress nofree nosync nounwind willreturn
declare void @llvm.lifetime.end.p0i8(i64 immarg, i8* nocapture) #1

; Function Attrs: mustprogress nofree norecurse nosync nounwind readnone sspstrong uwtable willreturn
define dso_local i32 @shuzi(i8 signext %0) local_unnamed_addr #0 {
  %2 = add i8 %0, -48
  %3 = icmp ult i8 %2, 10
  %4 = zext i1 %3 to i32
  ret i32 %4
}

; Function Attrs: nounwind sspstrong uwtable
define dso_local i32 @main() local_unnamed_addr #2 {
  %1 = alloca i32, align 4
  %2 = alloca [81 x i8], align 16
  %3 = bitcast i32* %1 to i8*
  call void @llvm.lifetime.start.p0i8(i64 4, i8* nonnull %3) #7
  %4 = getelementptr inbounds [81 x i8], [81 x i8]* %2, i64 0, i64 0
  call void @llvm.lifetime.start.p0i8(i64 81, i8* nonnull %4) #7
  %5 = call i32 (i8*, ...) @__isoc99_scanf(i8* getelementptr inbounds ([3 x i8], [3 x i8]* @.str, i64 0, i64 0), i32* nonnull %1)
  %6 = call i32 (i8*, ...) bitcast (i32 (...)* @gets to i32 (i8*, ...)*)(i8* nonnull %4) #7
  %7 = load i32, i32* %1, align 4, !tbaa !5
  %8 = icmp sgt i32 %7, 0
  br i1 %8, label %9, label %49

9:                                                ; preds = %0, %43
  %10 = phi i32 [ %46, %43 ], [ 0, %0 ]
  %11 = call i32 (i8*, ...) bitcast (i32 (...)* @gets to i32 (i8*, ...)*)(i8* nonnull %4) #7
  %12 = call i64 @strlen(i8* noundef nonnull %4) #8
  %13 = trunc i64 %12 to i32
  %14 = load i8, i8* %4, align 16, !tbaa !9
  %15 = add i8 %14, -65
  %16 = icmp ult i8 %15, 26
  br i1 %16, label %22, label %17

17:                                               ; preds = %9
  %18 = add i8 %14, -97
  %19 = icmp ugt i8 %18, 25
  %20 = icmp ne i8 %14, 95
  %21 = and i1 %20, %19
  br i1 %21, label %43, label %22

22:                                               ; preds = %9, %17
  %23 = icmp sgt i32 %13, 1
  br i1 %23, label %24, label %43

24:                                               ; preds = %22
  %25 = and i64 %12, 4294967295
  br label %26

26:                                               ; preds = %24, %40
  %27 = phi i64 [ 1, %24 ], [ %41, %40 ]
  %28 = getelementptr inbounds [81 x i8], [81 x i8]* %2, i64 0, i64 %27
  %29 = load i8, i8* %28, align 1, !tbaa !9
  %30 = add i8 %29, -65
  %31 = icmp ult i8 %30, 26
  br i1 %31, label %40, label %32

32:                                               ; preds = %26
  %33 = add i8 %29, -97
  %34 = icmp ult i8 %33, 26
  %35 = icmp eq i8 %29, 95
  %36 = or i1 %35, %34
  %37 = add i8 %29, -48
  %38 = icmp ult i8 %37, 10
  %39 = or i1 %38, %36
  br i1 %39, label %40, label %43

40:                                               ; preds = %26, %32
  %41 = add nuw nsw i64 %27, 1
  %42 = icmp eq i64 %41, %25
  br i1 %42, label %43, label %26, !llvm.loop !10

43:                                               ; preds = %40, %32, %22, %17
  %44 = phi i8* [ getelementptr inbounds ([2 x i8], [2 x i8]* @str.3, i64 0, i64 0), %17 ], [ getelementptr inbounds ([2 x i8], [2 x i8]* @str, i64 0, i64 0), %22 ], [ getelementptr inbounds ([2 x i8], [2 x i8]* @str.3, i64 0, i64 0), %32 ], [ getelementptr inbounds ([2 x i8], [2 x i8]* @str, i64 0, i64 0), %40 ]
  %45 = call i32 @puts(i8* nonnull dereferenceable(1) %44)
  %46 = add nuw nsw i32 %10, 1
  %47 = load i32, i32* %1, align 4, !tbaa !5
  %48 = icmp slt i32 %46, %47
  br i1 %48, label %9, label %49, !llvm.loop !12

49:                                               ; preds = %43, %0
  call void @llvm.lifetime.end.p0i8(i64 81, i8* nonnull %4) #7
  call void @llvm.lifetime.end.p0i8(i64 4, i8* nonnull %3) #7
  ret i32 0
}

; Function Attrs: nofree nounwind
declare noundef i32 @__isoc99_scanf(i8* nocapture noundef readonly, ...) local_unnamed_addr #3

declare i32 @gets(...) local_unnamed_addr #4

; Function Attrs: argmemonly mustprogress nofree nounwind readonly willreturn
declare i64 @strlen(i8* nocapture) local_unnamed_addr #5

; Function Attrs: nofree nounwind
declare noundef i32 @puts(i8* nocapture noundef readonly) local_unnamed_addr #6


!llvm.module.flags = !{!0, !1, !2, !3}
!llvm.ident = !{!4}

!0 = !{i32 1, !"wchar_size", i32 4}
!1 = !{i32 7, !"PIC Level", i32 2}
!2 = !{i32 7, !"PIE Level", i32 2}
!3 = !{i32 7, !"uwtable", i32 1}
!4 = !{!"clang version 13.0.0"}
!5 = !{!6, !6, i64 0}
!6 = !{!"int", !7, i64 0}
!7 = !{!"omnipotent char", !8, i64 0}
!8 = !{!"Simple C/C++ TBAA"}
!9 = !{!7, !7, i64 0}
!10 = distinct !{!10, !11}
!11 = !{!"llvm.loop.mustprogress"}
!12 = distinct !{!12, !11}
